TN:
SF:/home/nova/umd/Fall 2023/ENPM808X/testdrivendevelopment/include/lib.hpp
FN:5,_Z5dummyv
FNDA:0,_Z5dummyv
FNF:1
FNH:0
DA:5,0
DA:6,0
DA:7,0
LF:3
LH:0
end_of_record
TN:
SF:/home/nova/umd/Fall 2023/ENPM808X/testdrivendevelopment/libs/pidcontroller/pidcontroller.cpp
FN:5,_ZN13PIDController9calculateEd
FN:10,_ZN13PIDController8integralEd
FN:15,_ZN13PIDController10derivativeEd
FNDA:0,_ZN13PIDController8integralEd
FNDA:0,_ZN13PIDController10derivativeEd
FNDA:2,_ZN13PIDController9calculateEd
FNF:3
FNH:1
DA:5,2
DA:6,2
DA:7,2
DA:10,0
DA:11,0
DA:12,0
DA:15,0
DA:16,0
DA:17,0
LF:9
LH:3
end_of_record
TN:
SF:/home/nova/umd/Fall 2023/ENPM808X/testdrivendevelopment/libs/pidcontroller/pidcontroller.hpp
FN:18,_ZN13PIDControllerC2Eddd
FNDA:2,_ZN13PIDControllerC2Eddd
FNF:1
FNH:1
DA:18,2
LF:1
LH:1
end_of_record
TN:
SF:/home/nova/umd/Fall 2023/ENPM808X/testdrivendevelopment/test/main.cpp
FN:3,main
FNDA:2,main
FNF:1
FNH:1
DA:3,2
DA:4,2
DA:5,2
LF:3
LH:3
end_of_record
TN:
SF:/home/nova/umd/Fall 2023/ENPM808X/testdrivendevelopment/test/test.cpp
FN:5,_ZN30pidcontroller_Test_Case_1_TestC2Ev
FN:5,_ZN30pidcontroller_Test_Case_1_TestD0Ev
FN:5,_ZN30pidcontroller_Test_Case_1_Test8TestBodyEv
FN:5,_ZN30pidcontroller_Test_Case_1_TestD2Ev
FN:11,_ZN30pidcontroller_Test_Case_2_Test8TestBodyEv
FN:11,_ZN30pidcontroller_Test_Case_2_TestD2Ev
FN:11,_ZN30pidcontroller_Test_Case_2_TestD0Ev
FN:11,_ZN30pidcontroller_Test_Case_2_TestC2Ev
FNDA:1,_ZN30pidcontroller_Test_Case_2_TestC2Ev
FNDA:1,_ZN30pidcontroller_Test_Case_1_Test8TestBodyEv
FNDA:1,_ZN30pidcontroller_Test_Case_2_TestD2Ev
FNDA:1,_ZN30pidcontroller_Test_Case_2_TestD0Ev
FNDA:1,_ZN30pidcontroller_Test_Case_1_TestD0Ev
FNDA:1,_ZN30pidcontroller_Test_Case_1_TestD2Ev
FNDA:1,_ZN30pidcontroller_Test_Case_2_Test8TestBodyEv
FNDA:1,_ZN30pidcontroller_Test_Case_1_TestC2Ev
FNF:8
FNH:8
DA:5,4
DA:6,1
DA:7,1
DA:8,1
DA:9,1
DA:11,4
DA:12,1
DA:13,1
DA:14,1
DA:15,1
LF:10
LH:10
end_of_record
